; Function Attrs: nounwind uwtable
define internal range(i32 -2147483648, 1) i32 @process_command(ptr noundef %0, ptr noundef %1, ptr noundef %2, ptr noundef %3, i32 noundef %4, i32 noundef %5) #0 {
  %7 = tail call i32 @ff_filter_process_command(ptr noundef %0, ptr noundef %1, ptr noundef %2, ptr noundef %3, i32 noundef %4, i32 noundef %5) #5
  %8 = icmp slt i32 %7, 0
  br i1 %8, label %61, label %9

9:                                                ; preds = %6
  %10 = getelementptr inbounds nuw i8, ptr %0, i64 32
  %11 = load ptr, ptr %10, align 8, !tbaa !4
  %12 = load ptr, ptr %11, align 8, !tbaa !20
  %13 = getelementptr inbounds nuw i8, ptr %12, i64 36
  %14 = load i32, ptr %13, align 4, !tbaa !22
  %15 = tail call ptr @av_pix_fmt_desc_get(i32 noundef %14) #5
  %16 = getelementptr inbounds nuw i8, ptr %12, i64 16
  %17 = load ptr, ptr %16, align 8, !tbaa !31
  %18 = getelementptr inbounds nuw i8, ptr %17, i64 72
  %19 = load ptr, ptr %18, align 8, !tbaa !32
  %20 = getelementptr inbounds nuw i8, ptr %15, i64 40
  %21 = load i32, ptr %20, align 8, !tbaa !33
  %22 = icmp eq i32 %21, 8
  br i1 %22, label %23, label %38

23:                                               ; preds = %9
  %24 = getelementptr inbounds nuw i8, ptr %19, i64 8
  %25 = load double, ptr %24, align 8, !tbaa !35
  %26 = getelementptr inbounds nuw i8, ptr %19, i64 16
  %27 = load double, ptr %26, align 8, !tbaa !38
  %28 = fadd nsz double %25, %27
  %29 = fmul nsz double %28, 2.550000e+02
  %30 = fptosi double %29 to i32
  %.not.i.i = icmp ult i32 %30, 256
  %isnotneg.i.i = icmp sgt i32 %30, -1
  %31 = sext i1 %isnotneg.i.i to i32
  %.0.i.i = select i1 %.not.i.i, i32 %30, i32 %31
  %32 = and i32 %.0.i.i, 255
  %33 = fsub nsz double %25, %27
  %34 = fmul nsz double %33, 2.550000e+02
  %35 = fptosi double %34 to i32
  %.not.i29.i = icmp ult i32 %35, 256
  %isnotneg.i30.i = icmp sgt i32 %35, -1
  %36 = sext i1 %isnotneg.i30.i to i32
  %.0.i31.i = select i1 %.not.i29.i, i32 %35, i32 %36
  %37 = and i32 %.0.i31.i, 255
  br label %config_input.exit

38:                                               ; preds = %9
  %notmask.i = shl nsw i32 -1, %21
  %39 = xor i32 %notmask.i, -1
  %40 = getelementptr inbounds nuw i8, ptr %19, i64 44
  store i32 %39, ptr %40, align 4, !tbaa !39
  %41 = getelementptr inbounds nuw i8, ptr %19, i64 8
  %42 = load double, ptr %41, align 8, !tbaa !35
  %43 = getelementptr inbounds nuw i8, ptr %19, i64 16
  %44 = load double, ptr %43, align 8, !tbaa !38
  %45 = fadd nsz double %42, %44
  %46 = uitofp nneg i32 %39 to double
  %47 = fmul nsz double %45, %46
  %48 = fptosi double %47 to i32
  %49 = icmp slt i32 %48, 0
  %..i.i = tail call i32 @llvm.smin.i32(i32 %48, i32 %39)
  %.0.i32.i = select i1 %49, i32 0, i32 %..i.i
  %50 = fsub nsz double %42, %44
  %51 = fmul nsz double %50, %46
  %52 = fptosi double %51 to i32
  %53 = icmp slt i32 %52, 0
  %..i33.i = tail call i32 @llvm.smin.i32(i32 %52, i32 %39)
  %.0.i34.i = select i1 %53, i32 0, i32 %..i33.i
  br label %config_input.exit

config_input.exit:                                ; preds = %23, %38
  %.sink36.i = phi double [ %46, %38 ], [ 2.550000e+02, %23 ]
  %.0.i32.sink.i = phi i32 [ %.0.i32.i, %38 ], [ %32, %23 ]
  %.0.i34.sink.i = phi i32 [ %.0.i34.i, %38 ], [ %37, %23 ]
  %do_lumakey_slice16.sink.i = phi ptr [ @do_lumakey_slice16, %38 ], [ @do_lumakey_slice8, %23 ]
  %54 = getelementptr inbounds nuw i8, ptr %19, i64 24
  %55 = load double, ptr %54, align 8, !tbaa !40
  %56 = fmul nsz double %.sink36.i, %55
  %.sink.i = fptosi double %56 to i32
  %57 = getelementptr inbounds nuw i8, ptr %19, i64 32
  store i32 %.0.i32.sink.i, ptr %57, align 8, !tbaa !41
  %58 = getelementptr inbounds nuw i8, ptr %19, i64 36
  store i32 %.0.i34.sink.i, ptr %58, align 4, !tbaa !42
  %59 = getelementptr inbounds nuw i8, ptr %19, i64 48
  store ptr %do_lumakey_slice16.sink.i, ptr %59, align 8, !tbaa !43
  %60 = getelementptr inbounds nuw i8, ptr %19, i64 40
  store i32 %.sink.i, ptr %60, align 8, !tbaa !44
  br label %61

61:                                               ; preds = %6, %config_input.exit
  %.0 = phi i32 [ 0, %config_input.exit ], [ %7, %6 ]
  ret i32 %.0
}